target datalayout = "e-m:e-p270:32:32-p271:32:32-p272:64:64-i64:64-i128:128-f80:128-n8:16:32:64-S128"
target triple = "x86_64-pc-linux-gnu"

%struct.__va_list_tag = type { i32, i32, ptr, ptr }

@.str.20 = private unnamed_addr constant [3 x i8] c"%s\00", align 1

; Function Attrs: nounwind uwtable
define internal void @zend_throw_or_error(i32 noundef %0, ptr noundef %1, ptr noundef %2, ...) #0 {
  %4 = alloca i32, align 4
  %5 = alloca ptr, align 8
  %6 = alloca ptr, align 8
  %7 = alloca [1 x %struct.__va_list_tag], align 16
  %8 = alloca ptr, align 8
  store i32 %0, ptr %4, align 4
  store ptr %1, ptr %5, align 8
  store ptr %2, ptr %6, align 8
  store ptr null, ptr %8, align 8
  %9 = getelementptr inbounds [1 x %struct.__va_list_tag], ptr %7, i64 0, i64 0
  call void @llvm.va_start(ptr %9)
  %10 = load ptr, ptr %6, align 8
  %11 = getelementptr inbounds [1 x %struct.__va_list_tag], ptr %7, i64 0, i64 0
  %12 = call i64 @zend_vspprintf(ptr noundef %8, i64 noundef 0, ptr noundef %10, ptr noundef %11)
  %13 = load i32, ptr %4, align 4
  %14 = and i32 %13, 512
  %15 = icmp ne i32 %14, 0
  br i1 %15, label %16, label %19

16:                                               ; preds = %3
  %17 = load ptr, ptr %5, align 8
  %18 = load ptr, ptr %8, align 8
  call void (ptr, ptr, ...) @zend_throw_error(ptr noundef %17, ptr noundef @.str.20, ptr noundef %18)
  br label %21

19:                                               ; preds = %3
  %20 = load ptr, ptr %8, align 8
  call void (i32, ptr, ...) @zend_error_noreturn(i32 noundef 1, ptr noundef @.str.20, ptr noundef %20) #16
  unreachable

21:                                               ; preds = %16
  %22 = load ptr, ptr %8, align 8
  call void @_efree(ptr noundef %22)
  %23 = getelementptr inbounds [1 x %struct.__va_list_tag], ptr %7, i64 0, i64 0
  call void @llvm.va_end(ptr %23)
  ret void
}