; Function Attrs: nounwind uwtable
define internal void @zend_throw_or_error(i32 noundef %0, ptr nocapture readnone %1, ptr noundef %2, ...) unnamed_addr #0 {
  %4 = alloca [1 x %struct.__va_list_tag], align 16
  %5 = alloca ptr, align 8
  store ptr null, ptr %5, align 8
  call void @llvm.va_start(ptr nonnull %4)
  %6 = call i64 @zend_vspprintf(ptr noundef nonnull %5, i64 noundef 0, ptr noundef %2, ptr noundef nonnull %4) #24
  %7 = and i32 %0, 512
  %.not = icmp eq i32 %7, 0
  %8 = load ptr, ptr %5, align 8
  br i1 %.not, label %11, label %9

9:                                                ; preds = %3
  call void (ptr, ptr, ...) @zend_throw_error(ptr noundef null, ptr noundef nonnull @.str.20, ptr noundef %8) #24
  %10 = load ptr, ptr %5, align 8
  call void @_efree(ptr noundef %10) #24
  call void @llvm.va_end(ptr nonnull %4)
  ret void

11:                                               ; preds = %3
  call void (i32, ptr, ...) @zend_error_noreturn(i32 noundef 1, ptr noundef nonnull @.str.20, ptr noundef %8) #27
  unreachable
}